target datalayout = "e-m:e-p270:32:32-p271:32:32-p272:64:64-i64:64-i128:128-f80:128-n8:16:32:64-S128"
target triple = "x86_64-pc-linux-gnu"

%class.Node = type <{ ptr, ptr, ptr, i32, i32, i32, i32, i32, i32, i32, [4 x i8] }>

@_ZTV4Node = external unnamed_addr constant { [26 x ptr] }, align 8

; Function Attrs: mustprogress nounwind uwtable
define hidden void @_ZN4NodeC2Ej(ptr noundef nonnull align 8 dereferenceable(52) %0, i32 noundef %1) unnamed_addr #1 align 2 {
  %3 = alloca ptr, align 8
  %4 = alloca i32, align 4
  %5 = alloca ptr, align 8
  %6 = alloca i32, align 4
  store ptr %0, ptr %3, align 8
  store i32 %1, ptr %4, align 4
  %7 = load ptr, ptr %3, align 8
  store ptr getelementptr inbounds inrange(-16, 192) ({ [26 x ptr] }, ptr @_ZTV4Node, i32 0, i32 0, i32 2), ptr %7, align 8
  %8 = getelementptr inbounds %class.Node, ptr %7, i32 0, i32 7
  %9 = load i32, ptr %4, align 4
  %10 = call noundef i32 @_ZN4Node4InitEi(ptr noundef nonnull align 8 dereferenceable(52) %7, i32 noundef %9)
  store i32 %10, ptr %8, align 8
  %11 = load i32, ptr %4, align 4
  %12 = icmp eq i32 %11, 0
  br i1 %12, label %13, label %15

13:                                               ; preds = %2
  %14 = getelementptr inbounds %class.Node, ptr %7, i32 0, i32 1
  store ptr null, ptr %14, align 8
  br label %31

15:                                               ; preds = %2
  %16 = getelementptr inbounds %class.Node, ptr %7, i32 0, i32 1
  %17 = load ptr, ptr %16, align 8
  store ptr %17, ptr %5, align 8
  store i32 0, ptr %6, align 4
  br label %18

18:                                               ; preds = %27, %15
  %19 = load i32, ptr %6, align 4
  %20 = load i32, ptr %4, align 4
  %21 = icmp ult i32 %19, %20
  br i1 %21, label %22, label %30

22:                                               ; preds = %18
  %23 = load ptr, ptr %5, align 8
  %24 = load i32, ptr %6, align 4
  %25 = zext i32 %24 to i64
  %26 = getelementptr inbounds ptr, ptr %23, i64 %25
  store ptr null, ptr %26, align 8
  br label %27

27:                                               ; preds = %22
  %28 = load i32, ptr %6, align 4
  %29 = add i32 %28, 1
  store i32 %29, ptr %6, align 4
  br label %18, !llvm.loop !6

30:                                               ; preds = %18
  br label %31

31:                                               ; preds = %30, %13
  ret void
}