; Function Attrs: mustprogress nounwind uwtable
define hidden void @_ZN4NodeC2Ej(ptr noundef nonnull align 8 dereferenceable(52) %0, i32 noundef %1) unnamed_addr #0 align 2 {
  store ptr getelementptr inbounds inrange(-16, 192) (i8, ptr @_ZTV4Node, i64 16), ptr %0, align 8
  %3 = getelementptr inbounds i8, ptr %0, i64 40
  %4 = tail call noundef i32 @_ZN4Node4InitEi(ptr noundef nonnull align 8 dereferenceable(52) %0, i32 noundef %1)
  store i32 %4, ptr %3, align 8
  %5 = icmp eq i32 %1, 0
  %6 = getelementptr inbounds i8, ptr %0, i64 8
  br i1 %5, label %7, label %.loopexit.loopexit

7:                                                ; preds = %2
  store ptr null, ptr %6, align 8
  br label %.loopexit

.loopexit.loopexit:                               ; preds = %2
  %8 = load ptr, ptr %6, align 8
  %9 = zext i32 %1 to i64
  %10 = shl nuw nsw i64 %9, 3
  tail call void @llvm.memset.p0.i64(ptr align 8 %8, i8 0, i64 %10, i1 false)
  br label %.loopexit

.loopexit:                                        ; preds = %.loopexit.loopexit, %7
  ret void
}